; Function Attrs: nounwind uwtable
define ptr @l_Nat_repeatTR_loop___at_Lean_Widget_TaggedText_prettyTagged___spec__9(i32 noundef %0, ptr noundef %1, ptr noundef %2) local_unnamed_addr #1 {
  br label %4

4:                                                ; preds = %lean_dec.exit, %3
  %.016 = phi ptr [ %2, %3 ], [ %26, %lean_dec.exit ]
  %.014 = phi ptr [ %1, %3 ], [ %.1.i24, %lean_dec.exit ]
  %5 = ptrtoint ptr %.014 to i64
  %6 = and i64 %5, 1
  %.not = icmp eq i64 %6, 0
  br i1 %.not, label %lean_nat_eq.exit.thread, label %lean_nat_eq.exit, !prof !8

lean_nat_eq.exit:                                 ; preds = %4
  %.not33 = icmp eq ptr %.014, inttoptr (i64 1 to ptr)
  br i1 %.not33, label %.loopexit, label %8

lean_nat_eq.exit.thread:                          ; preds = %4
  %7 = tail call zeroext i1 @lean_nat_big_eq(ptr noundef %.014, ptr noundef nonnull inttoptr (i64 1 to ptr)) #5
  br i1 %7, label %.thread25, label %.thread

8:                                                ; preds = %lean_nat_eq.exit
  %9 = icmp ult ptr %.014, inttoptr (i64 2 to ptr)
  br i1 %9, label %lean_dec.exit, label %10

10:                                               ; preds = %8
  %11 = add i64 %5, -2
  %12 = inttoptr i64 %11 to ptr
  br label %lean_dec.exit

.thread:                                          ; preds = %lean_nat_eq.exit.thread
  %13 = tail call ptr @lean_nat_big_sub(ptr noundef %.014, ptr noundef nonnull inttoptr (i64 3 to ptr)) #5
  %14 = load i32, ptr %.014, align 4, !tbaa !9
  %15 = icmp sgt i32 %14, 1
  br i1 %15, label %16, label %18, !prof !12

16:                                               ; preds = %.thread
  %17 = add nsw i32 %14, -1
  store i32 %17, ptr %.014, align 4, !tbaa !9
  br label %lean_dec.exit

18:                                               ; preds = %.thread
  %.not.i = icmp eq i32 %14, 0
  br i1 %.not.i, label %lean_dec.exit, label %19

19:                                               ; preds = %18
  tail call void @lean_dec_ref_cold(ptr noundef nonnull %.014) #5
  br label %lean_dec.exit

.thread25:                                        ; preds = %lean_nat_eq.exit.thread
  %20 = load i32, ptr %.014, align 4, !tbaa !9
  %21 = icmp sgt i32 %20, 1
  br i1 %21, label %22, label %24, !prof !12

22:                                               ; preds = %.thread25
  %23 = add nsw i32 %20, -1
  store i32 %23, ptr %.014, align 4, !tbaa !9
  br label %.loopexit

24:                                               ; preds = %.thread25
  %.not.i19 = icmp eq i32 %20, 0
  br i1 %.not.i19, label %.loopexit, label %25

25:                                               ; preds = %24
  tail call void @lean_dec_ref_cold(ptr noundef nonnull %.014) #5
  br label %.loopexit

lean_dec.exit:                                    ; preds = %10, %8, %16, %18, %19
  %.1.i24 = phi ptr [ %13, %16 ], [ %13, %18 ], [ %13, %19 ], [ inttoptr (i64 1 to ptr), %8 ], [ %12, %10 ]
  %26 = tail call ptr @lean_string_push(ptr noundef %.016, i32 noundef %0) #5
  br label %4

.loopexit:                                        ; preds = %lean_nat_eq.exit, %25, %24, %22
  ret ptr %.016
}